target datalayout = "e-m:e-p270:32:32-p271:32:32-p272:64:64-i64:64-i128:128-f80:128-n8:16:32:64-S128"
target triple = "x86_64-pc-linux-gnu"

%struct.slurm_conf_t = type { i64, ptr, i16, ptr, ptr, ptr, ptr, ptr, i16, ptr, ptr, ptr, ptr, ptr, ptr, ptr, i16, ptr, ptr, ptr, ptr, i16, ptr, ptr, ptr, i64, ptr, ptr, ptr, ptr, i16, ptr, ptr, i16, i32, ptr, i32, ptr, i32, i32, ptr, ptr, i64, i64, ptr, i16, i16, ptr, i32, i32, ptr, i32, ptr, i32, i16, i16, i16, ptr, i16, i16, ptr, ptr, i32, i16, i16, ptr, i32, i16, ptr, ptr, ptr, ptr, i16, ptr, ptr, ptr, ptr, i32, ptr, ptr, ptr, ptr, i16, i16, ptr, i32, i32, i32, i16, i16, ptr, ptr, i16, ptr, ptr, i32, i32, i32, i32, i32, i64, i32, i32, i16, ptr, ptr, i32, ptr, ptr, ptr, i16, i32, ptr, ptr, i16, ptr, ptr, i32, i16, ptr, ptr, ptr, ptr, i32, i32, i16, i16, i32, ptr, i16, ptr, i32, i32, i32, i32, i32, i32, ptr, i16, ptr, ptr, i32, i16, ptr, i32, i16, i16, ptr, ptr, ptr, i16, ptr, ptr, ptr, ptr, i16, i16, ptr, i16, ptr, i16, ptr, i16, ptr, i16, ptr, ptr, ptr, ptr, i16, ptr, ptr, ptr, i32, ptr, i32, ptr, ptr, i16, ptr, ptr, i32, i16, ptr, ptr, i16, i16, ptr, i16, ptr, ptr, ptr, i32, ptr, i16, i16, ptr, ptr, ptr, ptr, ptr, ptr, ptr, ptr, i16, i32, i16, ptr, ptr, ptr, ptr, i32, ptr, ptr, ptr, i16, ptr, ptr, ptr, i16, ptr, i16, ptr, i16, i16, ptr }

@.str = private unnamed_addr constant [16 x i8] c"cgroup_common.c\00", align 1
@plugin_type = external constant [0 x i8], align 1
@slurm_conf = dso_local global %struct.slurm_conf_t zeroinitializer, align 8
@.str.39 = private unnamed_addr constant [37 x i8] c"unable to open '%s' for reading : %m\00", align 1
@__func__._read_cg_file = private unnamed_addr constant [14 x i8] c"_read_cg_file\00", align 1
@.str.40 = private unnamed_addr constant [24 x i8] c"unable to read '%s': %m\00", align 1
@.str.41 = private unnamed_addr constant [101 x i8] c"%s: %s: CGROUP: %s: Read %zd bytes after %d read() syscalls. File may have changed between syscalls.\00", align 1

; Function Attrs: nounwind uwtable
define internal i64 @_read_cg_file(ptr noundef %0, ptr noundef %1) #0 {
  %3 = alloca i64, align 8
  %4 = alloca ptr, align 8
  %5 = alloca ptr, align 8
  %6 = alloca i32, align 4
  %7 = alloca i32, align 4
  %8 = alloca i64, align 8
  %9 = alloca i64, align 8
  %10 = alloca i64, align 8
  %11 = alloca ptr, align 8
  %12 = alloca i32, align 4
  store ptr %0, ptr %4, align 8
  store ptr %1, ptr %5, align 8
  call void @llvm.lifetime.start.p0(i64 4, ptr %6) #6
  call void @llvm.lifetime.start.p0(i64 4, ptr %7) #6
  store i32 0, ptr %7, align 4
  call void @llvm.lifetime.start.p0(i64 8, ptr %8) #6
  store i64 4092, ptr %8, align 8
  call void @llvm.lifetime.start.p0(i64 8, ptr %9) #6
  call void @llvm.lifetime.start.p0(i64 8, ptr %10) #6
  store i64 0, ptr %10, align 8
  call void @llvm.lifetime.start.p0(i64 8, ptr %11) #6
  %13 = load ptr, ptr %4, align 8
  %14 = call i32 (ptr, i32, ...) @open(ptr noundef %13, i32 noundef 0, i32 noundef 448)
  store i32 %14, ptr %6, align 4
  %15 = load i32, ptr %6, align 4
  %16 = icmp slt i32 %15, 0
  br i1 %16, label %17, label %20

17:                                               ; preds = %2
  %18 = load ptr, ptr %4, align 8
  %19 = call i32 (ptr, ...) @error(ptr noundef @.str.39, ptr noundef %18)
  store i64 -1, ptr %3, align 8
  store i32 1, ptr %12, align 4
  br label %87

20:                                               ; preds = %2
  %21 = load i64, ptr %8, align 8
  %22 = call ptr @slurm_xcalloc(i64 noundef 1, i64 noundef %21, i1 noundef zeroext true, i1 noundef zeroext false, ptr noundef @.str, i32 noundef 158, ptr noundef @__func__._read_cg_file)
  store ptr %22, ptr %11, align 8
  br label %23

23:                                               ; preds = %42, %38, %20
  %24 = load i32, ptr %6, align 4
  %25 = load ptr, ptr %11, align 8
  %26 = load i64, ptr %10, align 8
  %27 = getelementptr inbounds i8, ptr %25, i64 %26
  %28 = load i64, ptr %8, align 8
  %29 = call i64 @read(i32 noundef %24, ptr noundef %27, i64 noundef %28)
  store i64 %29, ptr %9, align 8
  %30 = icmp ne i64 %29, 0
  br i1 %30, label %31, label %52

31:                                               ; preds = %23
  %32 = load i64, ptr %9, align 8
  %33 = icmp slt i64 %32, 0
  br i1 %33, label %34, label %42

34:                                               ; preds = %31
  %35 = call ptr @__errno_location() #7
  %36 = load i32, ptr %35, align 4
  %37 = icmp eq i32 %36, 4
  br i1 %37, label %38, label %39

38:                                               ; preds = %34
  br label %23, !llvm.loop !13

39:                                               ; preds = %34
  %40 = load ptr, ptr %4, align 8
  %41 = call i32 (ptr, ...) @error(ptr noundef @.str.40, ptr noundef %40)
  call void @slurm_xfree(ptr noundef %11)
  br label %52

42:                                               ; preds = %31
  %43 = load i64, ptr %9, align 8
  %44 = load i64, ptr %10, align 8
  %45 = add nsw i64 %44, %43
  store i64 %45, ptr %10, align 8
  %46 = load i64, ptr %10, align 8
  %47 = load i64, ptr %8, align 8
  %48 = add i64 %46, %47
  %49 = call ptr @slurm_xrecalloc(ptr noundef %11, i64 noundef 1, i64 noundef %48, i1 noundef zeroext true, i1 noundef zeroext false, ptr noundef @.str, i32 noundef 168, ptr noundef @__func__._read_cg_file)
  %50 = load i32, ptr %7, align 4
  %51 = add nsw i32 %50, 1
  store i32 %51, ptr %7, align 4
  br label %23, !llvm.loop !13

52:                                               ; preds = %39, %23
  %53 = load i32, ptr %7, align 4
  %54 = icmp sgt i32 %53, 1
  br i1 %54, label %55, label %74

55:                                               ; preds = %52
  br label %56

56:                                               ; preds = %55
  %57 = load i64, ptr getelementptr inbounds nuw (%struct.slurm_conf_t, ptr @slurm_conf, i32 0, i32 42), align 8
  %58 = and i64 %57, 36028797018963968
  %59 = icmp ne i64 %58, 0
  br i1 %59, label %60, label %71

60:                                               ; preds = %56
  br label %61

61:                                               ; preds = %60
  %62 = call i32 @get_log_level()
  %63 = icmp sge i32 %62, 4
  br i1 %63, label %64, label %68

64:                                               ; preds = %61
  %65 = load ptr, ptr %4, align 8
  %66 = load i64, ptr %10, align 8
  %67 = load i32, ptr %7, align 4
  call void (i32, ptr, ...) @log_var(i32 noundef 4, ptr noundef @.str.41, ptr noundef @plugin_type, ptr noundef @__func__._read_cg_file, ptr noundef %65, i64 noundef %66, i32 noundef %67)
  br label %68

68:                                               ; preds = %64, %61
  br label %69

69:                                               ; preds = %68
  br label %70

70:                                               ; preds = %69
  br label %71

71:                                               ; preds = %70, %56
  br label %72

72:                                               ; preds = %71
  br label %73

73:                                               ; preds = %72
  br label %74

74:                                               ; preds = %73, %52
  %75 = load i32, ptr %6, align 4
  %76 = call i32 @close(i32 noundef %75)
  %77 = load ptr, ptr %11, align 8
  %78 = load ptr, ptr %5, align 8
  store ptr %77, ptr %78, align 8
  %79 = load i64, ptr %9, align 8
  %80 = icmp eq i64 %79, -1
  br i1 %80, label %81, label %83

81:                                               ; preds = %74
  %82 = load i64, ptr %9, align 8
  br label %85

83:                                               ; preds = %74
  %84 = load i64, ptr %10, align 8
  br label %85

85:                                               ; preds = %83, %81
  %86 = phi i64 [ %82, %81 ], [ %84, %83 ]
  store i64 %86, ptr %3, align 8
  store i32 1, ptr %12, align 4
  br label %87

87:                                               ; preds = %85, %17
  call void @llvm.lifetime.end.p0(i64 8, ptr %11) #6
  call void @llvm.lifetime.end.p0(i64 8, ptr %10) #6
  call void @llvm.lifetime.end.p0(i64 8, ptr %9) #6
  call void @llvm.lifetime.end.p0(i64 8, ptr %8) #6
  call void @llvm.lifetime.end.p0(i64 4, ptr %7) #6
  call void @llvm.lifetime.end.p0(i64 4, ptr %6) #6
  %88 = load i64, ptr %3, align 8
  ret i64 %88
}