; Function Attrs: nounwind uwtable
define internal fastcc i64 @_read_cg_file(ptr noundef %0, ptr noundef nonnull writeonly captures(none) %1) unnamed_addr #0 {
  %3 = alloca ptr, align 8
  call void @llvm.lifetime.start.p0(i64 8, ptr nonnull %3) #8
  %4 = tail call i32 (ptr, i32, ...) @open(ptr noundef %0, i32 noundef 0, i32 noundef 448) #8
  %5 = icmp slt i32 %4, 0
  br i1 %5, label %6, label %8

6:                                                ; preds = %2
  %7 = tail call i32 (ptr, ...) @error(ptr noundef nonnull @.str.39, ptr noundef %0) #8
  br label %41

8:                                                ; preds = %2
  %9 = tail call ptr @slurm_xcalloc(i64 noundef 1, i64 noundef 4092, i1 noundef zeroext true, i1 noundef zeroext false, ptr noundef nonnull @.str, i32 noundef 158, ptr noundef nonnull @__func__._read_cg_file) #8
  store ptr %9, ptr %3, align 8
  br label %.outer

.outer:                                           ; preds = %24, %8
  %.024.ph = phi i32 [ %28, %24 ], [ 0, %8 ]
  %.0.ph = phi i64 [ %25, %24 ], [ 0, %8 ]
  br label %10

10:                                               ; preds = %.outer, %16
  %11 = load ptr, ptr %3, align 8
  %12 = getelementptr inbounds nuw i8, ptr %11, i64 %.0.ph
  %13 = call i64 @read(i32 noundef %4, ptr noundef %12, i64 noundef 4092) #8
  %.not = icmp eq i64 %13, 0
  br i1 %.not, label %.loopexit, label %14

14:                                               ; preds = %10
  %15 = icmp slt i64 %13, 0
  br i1 %15, label %16, label %24

16:                                               ; preds = %14
  %17 = tail call ptr @__errno_location() #9
  %18 = load i32, ptr %17, align 4
  %19 = icmp eq i32 %18, 4
  br i1 %19, label %10, label %20, !llvm.loop !13

20:                                               ; preds = %16
  %21 = call i32 (ptr, ...) @error(ptr noundef nonnull @.str.40, ptr noundef %0) #8
  call void @slurm_xfree(ptr noundef nonnull %3) #8
  %22 = icmp eq i64 %13, -1
  %23 = select i1 %22, i64 -1, i64 %.0.ph
  br label %.loopexit

24:                                               ; preds = %14
  %25 = add nuw nsw i64 %13, %.0.ph
  %26 = add nuw i64 %25, 4092
  %27 = call ptr @slurm_xrecalloc(ptr noundef nonnull %3, i64 noundef 1, i64 noundef %26, i1 noundef zeroext true, i1 noundef zeroext false, ptr noundef nonnull @.str, i32 noundef 168, ptr noundef nonnull @__func__._read_cg_file) #8
  %28 = add nuw nsw i32 %.024.ph, 1
  br label %.outer, !llvm.loop !13

.loopexit:                                        ; preds = %10, %20
  %29 = phi i64 [ %23, %20 ], [ %.0.ph, %10 ]
  %30 = icmp samesign ugt i32 %.024.ph, 1
  br i1 %30, label %31, label %38

31:                                               ; preds = %.loopexit
  %32 = load i64, ptr getelementptr inbounds nuw (i8, ptr @slurm_conf, i64 320), align 8
  %33 = and i64 %32, 36028797018963968
  %.not27 = icmp eq i64 %33, 0
  br i1 %.not27, label %38, label %34

34:                                               ; preds = %31
  %35 = call i32 @get_log_level() #8
  %36 = icmp sgt i32 %35, 3
  br i1 %36, label %37, label %38

37:                                               ; preds = %34
  call void (i32, ptr, ...) @log_var(i32 noundef 4, ptr noundef nonnull @.str.41, ptr noundef nonnull @plugin_type, ptr noundef nonnull @__func__._read_cg_file, ptr noundef %0, i64 noundef %.0.ph, i32 noundef %.024.ph) #8
  br label %38

38:                                               ; preds = %31, %37, %34, %.loopexit
  %39 = call i32 @close(i32 noundef %4) #8
  %40 = load ptr, ptr %3, align 8
  store ptr %40, ptr %1, align 8
  br label %41

41:                                               ; preds = %38, %6
  %.023 = phi i64 [ -1, %6 ], [ %29, %38 ]
  call void @llvm.lifetime.end.p0(i64 8, ptr nonnull %3) #8
  ret i64 %.023
}